; Function Attrs: nounwind uwtable
define hidden noalias ptr @SDL_GetHaptics_REAL(ptr noundef writeonly captures(address_is_null) %0) local_unnamed_addr #0 {
  %2 = tail call i32 @SDL_SYS_NumHaptics() #9
  %3 = add nsw i32 %2, 1
  %4 = sext i32 %3 to i64
  %5 = shl nsw i64 %4, 2
  %6 = tail call noalias ptr @SDL_malloc_REAL(i64 noundef %5) #9
  %.not = icmp eq ptr %6, null
  %.not19 = icmp eq ptr %0, null
  br i1 %.not, label %15, label %7

7:                                                ; preds = %1
  br i1 %.not19, label %9, label %8

8:                                                ; preds = %7
  store i32 %2, ptr %0, align 4
  br label %9

9:                                                ; preds = %8, %7
  %10 = icmp sgt i32 %2, 0
  br i1 %10, label %.lr.ph.preheader, label %._crit_edge

.lr.ph.preheader:                                 ; preds = %9
  %wide.trip.count = zext nneg i32 %2 to i64
  br label %.lr.ph

.lr.ph:                                           ; preds = %.lr.ph.preheader, %.lr.ph
  %indvars.iv = phi i64 [ 0, %.lr.ph.preheader ], [ %indvars.iv.next, %.lr.ph ]
  %indvars23 = trunc i64 %indvars.iv to i32
  %11 = tail call i32 @SDL_SYS_HapticInstanceID(i32 noundef %indvars23) #9
  %12 = getelementptr inbounds nuw i32, ptr %6, i64 %indvars.iv
  store i32 %11, ptr %12, align 4
  %indvars.iv.next = add nuw nsw i64 %indvars.iv, 1
  %exitcond.not = icmp eq i64 %indvars.iv.next, %wide.trip.count
  br i1 %exitcond.not, label %._crit_edge.loopexit, label %.lr.ph, !llvm.loop !3

._crit_edge.loopexit:                             ; preds = %.lr.ph
  %13 = zext nneg i32 %2 to i64
  br label %._crit_edge

._crit_edge:                                      ; preds = %9, %._crit_edge.loopexit
  %.016.lcssa = phi i64 [ %13, %._crit_edge.loopexit ], [ 0, %9 ]
  %14 = getelementptr inbounds nuw i32, ptr %6, i64 %.016.lcssa
  store i32 0, ptr %14, align 4
  br label %17

15:                                               ; preds = %1
  br i1 %.not19, label %17, label %16

16:                                               ; preds = %15
  store i32 0, ptr %0, align 4
  br label %17

17:                                               ; preds = %15, %16, %._crit_edge
  ret ptr %6
}